; Function Attrs: nounwind uwtable
define dso_local noundef ptr @overlay_ref_iterator_begin(ptr noundef %0, ptr noundef %1) local_unnamed_addr #0 {
  %3 = load ptr, ptr %0, align 8, !tbaa !4
  %.not = icmp eq ptr %3, @empty_ref_iterator_vtable
  br i1 %.not, label %4, label %7

4:                                                ; preds = %2
  %5 = load ptr, ptr getelementptr inbounds nuw (i8, ptr @empty_ref_iterator_vtable, i64 16), align 8, !tbaa !16
  %6 = tail call i32 %5(ptr noundef nonnull %0) #11
  br label %19

7:                                                ; preds = %2
  %8 = load ptr, ptr %1, align 8, !tbaa !4
  %.not10 = icmp eq ptr %8, @empty_ref_iterator_vtable
  br i1 %.not10, label %9, label %12

9:                                                ; preds = %7
  %10 = load ptr, ptr getelementptr inbounds nuw (i8, ptr @empty_ref_iterator_vtable, i64 16), align 8, !tbaa !16
  %11 = tail call i32 %10(ptr noundef nonnull %1) #11
  br label %19

12:                                               ; preds = %7
  %13 = tail call ptr @xcalloc(i64 noundef 1, i64 noundef 80) #11
  store ptr @merge_ref_iterator_vtable, ptr %13, align 8, !tbaa !4
  %14 = getelementptr inbounds nuw i8, ptr %13, i64 8
  tail call void @llvm.memset.p0.i64(ptr noundef nonnull align 8 dereferenceable(28) %14, i8 0, i64 28, i1 false)
  %15 = getelementptr inbounds nuw i8, ptr %13, i64 40
  store ptr %0, ptr %15, align 8, !tbaa !18
  %16 = getelementptr inbounds nuw i8, ptr %13, i64 48
  store ptr %1, ptr %16, align 8, !tbaa !22
  %17 = getelementptr inbounds nuw i8, ptr %13, i64 56
  store ptr @overlay_iterator_select, ptr %17, align 8, !tbaa !23
  %18 = getelementptr inbounds nuw i8, ptr %13, i64 64
  tail call void @llvm.memset.p0.i64(ptr noundef nonnull align 8 dereferenceable(16) %18, i8 0, i64 16, i1 false)
  br label %19

19:                                               ; preds = %12, %9, %4
  %.0 = phi ptr [ %1, %4 ], [ %0, %9 ], [ %13, %12 ]
  ret ptr %.0
}